target datalayout = "e-m:e-p270:32:32-p271:32:32-p272:64:64-i64:64-i128:128-f80:128-n8:16:32:64-S128"
target triple = "x86_64-pc-linux-gnu"

@initRefCount = internal global i32 0, align 4

; Function Attrs: nounwind uwtable
define i32 @wolfCrypt_Cleanup() #0 {
  %1 = alloca i32, align 4
  call void @llvm.lifetime.start.p0(i64 4, ptr %1) #7
  store i32 0, ptr %1, align 4, !tbaa !3
  %2 = load volatile i32, ptr @initRefCount, align 4, !tbaa !3
  %3 = add nsw i32 %2, -1
  store volatile i32 %3, ptr @initRefCount, align 4, !tbaa !3
  %4 = load volatile i32, ptr @initRefCount, align 4, !tbaa !3
  %5 = icmp slt i32 %4, 0
  br i1 %5, label %6, label %7

6:                                                ; preds = %0
  store volatile i32 0, ptr @initRefCount, align 4, !tbaa !3
  br label %7

7:                                                ; preds = %6, %0
  %8 = load volatile i32, ptr @initRefCount, align 4, !tbaa !3
  %9 = icmp eq i32 %8, 0
  br i1 %9, label %10, label %14

10:                                               ; preds = %7
  br label %11

11:                                               ; preds = %10
  br label %12

12:                                               ; preds = %11
  br label %13

13:                                               ; preds = %12
  br label %14

14:                                               ; preds = %13, %7
  %15 = load i32, ptr %1, align 4, !tbaa !3
  call void @llvm.lifetime.end.p0(i64 4, ptr %1) #7
  ret i32 %15
}