; Function Attrs: nofree norecurse nounwind memory(readwrite, argmem: none) uwtable
define noundef i32 @wolfCrypt_Cleanup() local_unnamed_addr #0 {
  %1 = load volatile i32, ptr @initRefCount, align 4, !tbaa !3
  %2 = add nsw i32 %1, -1
  store volatile i32 %2, ptr @initRefCount, align 4, !tbaa !3
  %3 = load volatile i32, ptr @initRefCount, align 4, !tbaa !3
  %4 = icmp slt i32 %3, 0
  br i1 %4, label %5, label %6

5:                                                ; preds = %0
  store volatile i32 0, ptr @initRefCount, align 4, !tbaa !3
  br label %6

6:                                                ; preds = %5, %0
  %7 = load volatile i32, ptr @initRefCount, align 4, !tbaa !3
  ret i32 0
}